target datalayout = "e-m:e-p270:32:32-p271:32:32-p272:64:64-i64:64-i128:128-f80:128-n8:16:32:64-S128"
target triple = "x86_64-pc-linux-gnu"

%struct.xl_running_xacts = type { i32, i32, i8, i32, i32, i32, [0 x i32] }

@.str.2 = private unnamed_addr constant [12 x i8] c"snapbuild.c\00", align 1
@.str.49 = private unnamed_addr constant [22 x i8] c"waiting for ourselves\00", align 1
@__func__.SnapBuildWaitSnapshot = private unnamed_addr constant [22 x i8] c"SnapBuildWaitSnapshot\00", align 1

; Function Attrs: nounwind uwtable
define internal void @SnapBuildWaitSnapshot(ptr noundef %0, i32 noundef %1) #0 {
  %3 = alloca ptr, align 8
  %4 = alloca i32, align 4
  %5 = alloca i32, align 4
  %6 = alloca i32, align 4
  %7 = alloca i32, align 4
  store ptr %0, ptr %3, align 8
  store i32 %1, ptr %4, align 4
  call void @llvm.lifetime.start.p0(i64 4, ptr %5) #9
  store i32 0, ptr %5, align 4
  br label %8

8:                                                ; preds = %44, %2
  %9 = load i32, ptr %5, align 4
  %10 = load ptr, ptr %3, align 8
  %11 = getelementptr inbounds nuw %struct.xl_running_xacts, ptr %10, i32 0, i32 0
  %12 = load i32, ptr %11, align 4
  %13 = icmp slt i32 %9, %12
  br i1 %13, label %14, label %47

14:                                               ; preds = %8
  call void @llvm.lifetime.start.p0(i64 4, ptr %6) #9
  %15 = load ptr, ptr %3, align 8
  %16 = getelementptr inbounds nuw %struct.xl_running_xacts, ptr %15, i32 0, i32 6
  %17 = load i32, ptr %5, align 4
  %18 = sext i32 %17 to i64
  %19 = getelementptr inbounds [0 x i32], ptr %16, i64 0, i64 %18
  %20 = load i32, ptr %19, align 4
  store i32 %20, ptr %6, align 4
  %21 = load i32, ptr %6, align 4
  %22 = call zeroext i1 @TransactionIdIsCurrentTransactionId(i32 noundef %21)
  br i1 %22, label %23, label %34

23:                                               ; preds = %14
  br label %24

24:                                               ; preds = %23
  br i1 true, label %25, label %27

25:                                               ; preds = %24
  %26 = call zeroext i1 @errstart_cold(i32 noundef 21, ptr noundef null) #10
  br i1 %26, label %29, label %31

27:                                               ; preds = %24
  %28 = call zeroext i1 @errstart(i32 noundef 21, ptr noundef null)
  br i1 %28, label %29, label %31

29:                                               ; preds = %27, %25
  %30 = call i32 (ptr, ...) @errmsg_internal(ptr noundef @.str.49)
  call void @errfinish(ptr noundef @.str.2, i32 noundef 1401, ptr noundef @__func__.SnapBuildWaitSnapshot)
  br label %31

31:                                               ; preds = %29, %27, %25
  unreachable

32:                                               ; No predecessors!
  br label %33

33:                                               ; preds = %32
  br label %34

34:                                               ; preds = %33, %14
  %35 = load i32, ptr %6, align 4
  %36 = load i32, ptr %4, align 4
  %37 = call zeroext i1 @TransactionIdFollows(i32 noundef %35, i32 noundef %36)
  br i1 %37, label %38, label %39

38:                                               ; preds = %34
  store i32 4, ptr %7, align 4
  br label %41

39:                                               ; preds = %34
  %40 = load i32, ptr %6, align 4
  call void @XactLockTableWait(i32 noundef %40, ptr noundef null, ptr noundef null, i32 noundef 0)
  store i32 0, ptr %7, align 4
  br label %41

41:                                               ; preds = %39, %38
  call void @llvm.lifetime.end.p0(i64 4, ptr %6) #9
  %42 = load i32, ptr %7, align 4
  switch i32 %42, label %52 [
    i32 0, label %43
    i32 4, label %44
  ]

43:                                               ; preds = %41
  br label %44

44:                                               ; preds = %43, %41
  %45 = load i32, ptr %5, align 4
  %46 = add i32 %45, 1
  store i32 %46, ptr %5, align 4
  br label %8, !llvm.loop !14

47:                                               ; preds = %8
  %48 = call zeroext i1 @RecoveryInProgress()
  br i1 %48, label %51, label %49

49:                                               ; preds = %47
  %50 = call i64 @LogStandbySnapshot()
  br label %51

51:                                               ; preds = %49, %47
  call void @llvm.lifetime.end.p0(i64 4, ptr %5) #9
  ret void

52:                                               ; preds = %41
  unreachable
}