; Function Attrs: nounwind uwtable
define internal fastcc void @SnapBuildWaitSnapshot(ptr noundef readonly captures(none) %0, i32 noundef %1) unnamed_addr #0 {
  %3 = load i32, ptr %0, align 4
  %4 = icmp sgt i32 %3, 0
  br i1 %4, label %.lr.ph, label %._crit_edge

.lr.ph:                                           ; preds = %2
  %5 = getelementptr inbounds nuw i8, ptr %0, i64 24
  br label %6

6:                                                ; preds = %.lr.ph, %16
  %indvars.iv = phi i64 [ 0, %.lr.ph ], [ %indvars.iv.next, %16 ]
  %7 = getelementptr inbounds nuw [0 x i32], ptr %5, i64 0, i64 %indvars.iv
  %8 = load i32, ptr %7, align 4
  %9 = tail call zeroext i1 @TransactionIdIsCurrentTransactionId(i32 noundef %8) #14
  br i1 %9, label %10, label %13

10:                                               ; preds = %6
  %11 = tail call zeroext i1 @errstart_cold(i32 noundef 21, ptr noundef null) #15
  tail call void @llvm.assume(i1 %11)
  %12 = tail call i32 (ptr, ...) @errmsg_internal(ptr noundef nonnull @.str.49) #14
  tail call void @errfinish(ptr noundef nonnull @.str.2, i32 noundef 1401, ptr noundef nonnull @__func__.SnapBuildWaitSnapshot) #14
  unreachable

13:                                               ; preds = %6
  %14 = tail call zeroext i1 @TransactionIdFollows(i32 noundef %8, i32 noundef %1) #14
  br i1 %14, label %16, label %15

15:                                               ; preds = %13
  tail call void @XactLockTableWait(i32 noundef %8, ptr noundef null, ptr noundef null, i32 noundef 0) #14
  br label %16

16:                                               ; preds = %13, %15
  %indvars.iv.next = add nuw nsw i64 %indvars.iv, 1
  %17 = load i32, ptr %0, align 4
  %18 = sext i32 %17 to i64
  %19 = icmp slt i64 %indvars.iv.next, %18
  br i1 %19, label %6, label %._crit_edge, !llvm.loop !14

._crit_edge:                                      ; preds = %16, %2
  %20 = tail call zeroext i1 @RecoveryInProgress() #14
  br i1 %20, label %23, label %21

21:                                               ; preds = %._crit_edge
  %22 = tail call i64 @LogStandbySnapshot() #14
  br label %23

23:                                               ; preds = %21, %._crit_edge
  ret void
}